; Function Attrs: mustprogress nounwind uwtable
define dso_local noundef zeroext i1 @_ZN4llvm8LLParser21parseScopeAndOrderingEbRhRNS_14AtomicOrderingE(ptr noundef nonnull align 8 dereferenceable(1768) %0, i1 noundef zeroext %1, ptr nocapture noundef nonnull writeonly align 1 dereferenceable(1) %2, ptr nocapture noundef nonnull writeonly align 4 dereferenceable(4) %3) local_unnamed_addr #0 align 2 {
  %5 = alloca %"class.llvm::Twine", align 8
  br i1 %1, label %6, label %21

6:                                                ; preds = %4
  %7 = tail call noundef zeroext i1 @_ZN4llvm8LLParser10parseScopeERh(ptr noundef nonnull align 8 dereferenceable(1768) %0, ptr noundef nonnull align 1 dereferenceable(1) %2)
  br i1 %7, label %21, label %8

8:                                                ; preds = %6
  call void @llvm.lifetime.start.p0(i64 40, ptr nonnull %5)
  %9 = getelementptr inbounds nuw i8, ptr %0, i64 176
  %10 = getelementptr inbounds i8, ptr %0, i64 232
  %11 = load i32, ptr %10, align 8
  %switch.tableidx = add i32 %11, -70
  %12 = icmp ult i32 %switch.tableidx, 6
  br i1 %12, label %switch.lookup, label %13

13:                                               ; preds = %8
  %14 = getelementptr inbounds nuw i8, ptr %5, i64 32
  %15 = getelementptr inbounds nuw i8, ptr %5, i64 33
  store i8 1, ptr %15, align 1
  store ptr @.str.121, ptr %5, align 8
  store i8 3, ptr %14, align 8
  %16 = getelementptr inbounds i8, ptr %0, i64 224
  %17 = load ptr, ptr %16, align 8
  %18 = call noundef zeroext i1 @_ZNK4llvm7LLLexer5ErrorENS_5SMLocERKNS_5TwineE(ptr noundef nonnull align 8 dereferenceable(161) %9, ptr %17, ptr noundef nonnull align 8 dereferenceable(34) %5) #25
  br label %_ZN4llvm8LLParser13parseOrderingERNS_14AtomicOrderingE.exit

switch.lookup:                                    ; preds = %8
  %19 = zext nneg i32 %switch.tableidx to i64
  %switch.gep = getelementptr inbounds [6 x i32], ptr @switch.table._ZN4llvm8LLParser14parseAtomicRMWERPNS_11InstructionERNS0_16PerFunctionStateE, i64 0, i64 %19
  %switch.load = load i32, ptr %switch.gep, align 4
  store i32 %switch.load, ptr %3, align 4
  %20 = tail call noundef i32 @_ZN4llvm7LLLexer8LexTokenEv(ptr noundef nonnull align 8 dereferenceable(161) %9) #25
  store i32 %20, ptr %10, align 8
  br label %_ZN4llvm8LLParser13parseOrderingERNS_14AtomicOrderingE.exit

_ZN4llvm8LLParser13parseOrderingERNS_14AtomicOrderingE.exit: ; preds = %13, %switch.lookup
  %.0.i = phi i1 [ %18, %13 ], [ false, %switch.lookup ]
  call void @llvm.lifetime.end.p0(i64 40, ptr nonnull %5)
  br label %21

21:                                               ; preds = %6, %_ZN4llvm8LLParser13parseOrderingERNS_14AtomicOrderingE.exit, %4
  %.0 = phi i1 [ false, %4 ], [ true, %6 ], [ %.0.i, %_ZN4llvm8LLParser13parseOrderingERNS_14AtomicOrderingE.exit ]
  ret i1 %.0
}